target datalayout = "e-m:e-p270:32:32-p271:32:32-p272:64:64-i64:64-i128:128-f80:128-n8:16:32:64-S128"
target triple = "x86_64-pc-linux-gnu"

; Function Attrs: alwaysinline nounwind willreturn memory(none) uwtable
define internal zeroext i8 @av_clip_uint8_c(i32 noundef %0) #8 {
  %2 = alloca i8, align 1
  %3 = alloca i32, align 4
  store i32 %0, ptr %3, align 4, !tbaa !11
  %4 = load i32, ptr %3, align 4, !tbaa !11
  %5 = and i32 %4, -256
  %6 = icmp ne i32 %5, 0
  br i1 %6, label %7, label %12

7:                                                ; preds = %1
  %8 = load i32, ptr %3, align 4, !tbaa !11
  %9 = xor i32 %8, -1
  %10 = ashr i32 %9, 31
  %11 = trunc i32 %10 to i8
  store i8 %11, ptr %2, align 1
  br label %15

12:                                               ; preds = %1
  %13 = load i32, ptr %3, align 4, !tbaa !11
  %14 = trunc i32 %13 to i8
  store i8 %14, ptr %2, align 1
  br label %15

15:                                               ; preds = %12, %7
  %16 = load i8, ptr %2, align 1
  ret i8 %16
}

; Function Attrs: nounwind uwtable
define internal void @filter_3x3(ptr noundef %0, i32 noundef %1, float noundef %2, float noundef %3, ptr noundef %4, ptr noundef %5, i32 noundef %6, i32 noundef %7, i32 noundef %8, i32 noundef %9, i32 noundef %10) #0 {
  %12 = alloca ptr, align 8
  %13 = alloca i32, align 4
  %14 = alloca float, align 4
  %15 = alloca float, align 4
  %16 = alloca ptr, align 8
  %17 = alloca ptr, align 8
  %18 = alloca i32, align 4
  %19 = alloca i32, align 4
  %20 = alloca i32, align 4
  %21 = alloca i32, align 4
  %22 = alloca i32, align 4
  %23 = alloca ptr, align 8
  %24 = alloca ptr, align 8
  %25 = alloca ptr, align 8
  %26 = alloca ptr, align 8
  %27 = alloca ptr, align 8
  %28 = alloca ptr, align 8
  %29 = alloca ptr, align 8
  %30 = alloca ptr, align 8
  %31 = alloca ptr, align 8
  %32 = alloca i32, align 4
  %33 = alloca i32, align 4
  store ptr %0, ptr %12, align 8, !tbaa !9
  store i32 %1, ptr %13, align 4, !tbaa !11
  store float %2, ptr %14, align 4, !tbaa !52
  store float %3, ptr %15, align 4, !tbaa !52
  store ptr %4, ptr %16, align 8, !tbaa !53
  store ptr %5, ptr %17, align 8, !tbaa !89
  store i32 %6, ptr %18, align 4, !tbaa !11
  store i32 %7, ptr %19, align 4, !tbaa !11
  store i32 %8, ptr %20, align 4, !tbaa !11
  store i32 %9, ptr %21, align 4, !tbaa !11
  store i32 %10, ptr %22, align 4, !tbaa !11
  call void @llvm.lifetime.start.p0(i64 8, ptr %23) #10
  %34 = load ptr, ptr %17, align 8, !tbaa !89
  %35 = getelementptr inbounds ptr, ptr %34, i64 0
  %36 = load ptr, ptr %35, align 8, !tbaa !9
  store ptr %36, ptr %23, align 8, !tbaa !9
  call void @llvm.lifetime.start.p0(i64 8, ptr %24) #10
  %37 = load ptr, ptr %17, align 8, !tbaa !89
  %38 = getelementptr inbounds ptr, ptr %37, i64 1
  %39 = load ptr, ptr %38, align 8, !tbaa !9
  store ptr %39, ptr %24, align 8, !tbaa !9
  call void @llvm.lifetime.start.p0(i64 8, ptr %25) #10
  %40 = load ptr, ptr %17, align 8, !tbaa !89
  %41 = getelementptr inbounds ptr, ptr %40, i64 2
  %42 = load ptr, ptr %41, align 8, !tbaa !9
  store ptr %42, ptr %25, align 8, !tbaa !9
  call void @llvm.lifetime.start.p0(i64 8, ptr %26) #10
  %43 = load ptr, ptr %17, align 8, !tbaa !89
  %44 = getelementptr inbounds ptr, ptr %43, i64 3
  %45 = load ptr, ptr %44, align 8, !tbaa !9
  store ptr %45, ptr %26, align 8, !tbaa !9
  call void @llvm.lifetime.start.p0(i64 8, ptr %27) #10
  %46 = load ptr, ptr %17, align 8, !tbaa !89
  %47 = getelementptr inbounds ptr, ptr %46, i64 4
  %48 = load ptr, ptr %47, align 8, !tbaa !9
  store ptr %48, ptr %27, align 8, !tbaa !9
  call void @llvm.lifetime.start.p0(i64 8, ptr %28) #10
  %49 = load ptr, ptr %17, align 8, !tbaa !89
  %50 = getelementptr inbounds ptr, ptr %49, i64 5
  %51 = load ptr, ptr %50, align 8, !tbaa !9
  store ptr %51, ptr %28, align 8, !tbaa !9
  call void @llvm.lifetime.start.p0(i64 8, ptr %29) #10
  %52 = load ptr, ptr %17, align 8, !tbaa !89
  %53 = getelementptr inbounds ptr, ptr %52, i64 6
  %54 = load ptr, ptr %53, align 8, !tbaa !9
  store ptr %54, ptr %29, align 8, !tbaa !9
  call void @llvm.lifetime.start.p0(i64 8, ptr %30) #10
  %55 = load ptr, ptr %17, align 8, !tbaa !89
  %56 = getelementptr inbounds ptr, ptr %55, i64 7
  %57 = load ptr, ptr %56, align 8, !tbaa !9
  store ptr %57, ptr %30, align 8, !tbaa !9
  call void @llvm.lifetime.start.p0(i64 8, ptr %31) #10
  %58 = load ptr, ptr %17, align 8, !tbaa !89
  %59 = getelementptr inbounds ptr, ptr %58, i64 8
  %60 = load ptr, ptr %59, align 8, !tbaa !9
  store ptr %60, ptr %31, align 8, !tbaa !9
  call void @llvm.lifetime.start.p0(i64 4, ptr %32) #10
  store i32 0, ptr %32, align 4, !tbaa !11
  br label %61

61:                                               ; preds = %177, %11
  %62 = load i32, ptr %32, align 4, !tbaa !11
  %63 = load i32, ptr %13, align 4, !tbaa !11
  %64 = icmp slt i32 %62, %63
  br i1 %64, label %65, label %180

65:                                               ; preds = %61
  call void @llvm.lifetime.start.p0(i64 4, ptr %33) #10
  %66 = load ptr, ptr %23, align 8, !tbaa !9
  %67 = load i32, ptr %32, align 4, !tbaa !11
  %68 = sext i32 %67 to i64
  %69 = getelementptr inbounds i8, ptr %66, i64 %68
  %70 = load i8, ptr %69, align 1, !tbaa !91
  %71 = zext i8 %70 to i32
  %72 = load ptr, ptr %16, align 8, !tbaa !53
  %73 = getelementptr inbounds i32, ptr %72, i64 0
  %74 = load i32, ptr %73, align 4, !tbaa !11
  %75 = mul nsw i32 %71, %74
  %76 = load ptr, ptr %24, align 8, !tbaa !9
  %77 = load i32, ptr %32, align 4, !tbaa !11
  %78 = sext i32 %77 to i64
  %79 = getelementptr inbounds i8, ptr %76, i64 %78
  %80 = load i8, ptr %79, align 1, !tbaa !91
  %81 = zext i8 %80 to i32
  %82 = load ptr, ptr %16, align 8, !tbaa !53
  %83 = getelementptr inbounds i32, ptr %82, i64 1
  %84 = load i32, ptr %83, align 4, !tbaa !11
  %85 = mul nsw i32 %81, %84
  %86 = add nsw i32 %75, %85
  %87 = load ptr, ptr %25, align 8, !tbaa !9
  %88 = load i32, ptr %32, align 4, !tbaa !11
  %89 = sext i32 %88 to i64
  %90 = getelementptr inbounds i8, ptr %87, i64 %89
  %91 = load i8, ptr %90, align 1, !tbaa !91
  %92 = zext i8 %91 to i32
  %93 = load ptr, ptr %16, align 8, !tbaa !53
  %94 = getelementptr inbounds i32, ptr %93, i64 2
  %95 = load i32, ptr %94, align 4, !tbaa !11
  %96 = mul nsw i32 %92, %95
  %97 = add nsw i32 %86, %96
  %98 = load ptr, ptr %26, align 8, !tbaa !9
  %99 = load i32, ptr %32, align 4, !tbaa !11
  %100 = sext i32 %99 to i64
  %101 = getelementptr inbounds i8, ptr %98, i64 %100
  %102 = load i8, ptr %101, align 1, !tbaa !91
  %103 = zext i8 %102 to i32
  %104 = load ptr, ptr %16, align 8, !tbaa !53
  %105 = getelementptr inbounds i32, ptr %104, i64 3
  %106 = load i32, ptr %105, align 4, !tbaa !11
  %107 = mul nsw i32 %103, %106
  %108 = add nsw i32 %97, %107
  %109 = load ptr, ptr %27, align 8, !tbaa !9
  %110 = load i32, ptr %32, align 4, !tbaa !11
  %111 = sext i32 %110 to i64
  %112 = getelementptr inbounds i8, ptr %109, i64 %111
  %113 = load i8, ptr %112, align 1, !tbaa !91
  %114 = zext i8 %113 to i32
  %115 = load ptr, ptr %16, align 8, !tbaa !53
  %116 = getelementptr inbounds i32, ptr %115, i64 4
  %117 = load i32, ptr %116, align 4, !tbaa !11
  %118 = mul nsw i32 %114, %117
  %119 = add nsw i32 %108, %118
  %120 = load ptr, ptr %28, align 8, !tbaa !9
  %121 = load i32, ptr %32, align 4, !tbaa !11
  %122 = sext i32 %121 to i64
  %123 = getelementptr inbounds i8, ptr %120, i64 %122
  %124 = load i8, ptr %123, align 1, !tbaa !91
  %125 = zext i8 %124 to i32
  %126 = load ptr, ptr %16, align 8, !tbaa !53
  %127 = getelementptr inbounds i32, ptr %126, i64 5
  %128 = load i32, ptr %127, align 4, !tbaa !11
  %129 = mul nsw i32 %125, %128
  %130 = add nsw i32 %119, %129
  %131 = load ptr, ptr %29, align 8, !tbaa !9
  %132 = load i32, ptr %32, align 4, !tbaa !11
  %133 = sext i32 %132 to i64
  %134 = getelementptr inbounds i8, ptr %131, i64 %133
  %135 = load i8, ptr %134, align 1, !tbaa !91
  %136 = zext i8 %135 to i32
  %137 = load ptr, ptr %16, align 8, !tbaa !53
  %138 = getelementptr inbounds i32, ptr %137, i64 6
  %139 = load i32, ptr %138, align 4, !tbaa !11
  %140 = mul nsw i32 %136, %139
  %141 = add nsw i32 %130, %140
  %142 = load ptr, ptr %30, align 8, !tbaa !9
  %143 = load i32, ptr %32, align 4, !tbaa !11
  %144 = sext i32 %143 to i64
  %145 = getelementptr inbounds i8, ptr %142, i64 %144
  %146 = load i8, ptr %145, align 1, !tbaa !91
  %147 = zext i8 %146 to i32
  %148 = load ptr, ptr %16, align 8, !tbaa !53
  %149 = getelementptr inbounds i32, ptr %148, i64 7
  %150 = load i32, ptr %149, align 4, !tbaa !11
  %151 = mul nsw i32 %147, %150
  %152 = add nsw i32 %141, %151
  %153 = load ptr, ptr %31, align 8, !tbaa !9
  %154 = load i32, ptr %32, align 4, !tbaa !11
  %155 = sext i32 %154 to i64
  %156 = getelementptr inbounds i8, ptr %153, i64 %155
  %157 = load i8, ptr %156, align 1, !tbaa !91
  %158 = zext i8 %157 to i32
  %159 = load ptr, ptr %16, align 8, !tbaa !53
  %160 = getelementptr inbounds i32, ptr %159, i64 8
  %161 = load i32, ptr %160, align 4, !tbaa !11
  %162 = mul nsw i32 %158, %161
  %163 = add nsw i32 %152, %162
  store i32 %163, ptr %33, align 4, !tbaa !11
  %164 = load i32, ptr %33, align 4, !tbaa !11
  %165 = sitofp i32 %164 to float
  %166 = load float, ptr %14, align 4, !tbaa !52
  %167 = load float, ptr %15, align 4, !tbaa !52
  %168 = call nsz float @llvm.fmuladd.f32(float %165, float %166, float %167)
  %169 = fadd nsz float %168, 5.000000e-01
  %170 = fptosi float %169 to i32
  store i32 %170, ptr %33, align 4, !tbaa !11
  %171 = load i32, ptr %33, align 4, !tbaa !11
  %172 = call zeroext i8 @av_clip_uint8_c(i32 noundef %171) #12
  %173 = load ptr, ptr %12, align 8, !tbaa !9
  %174 = load i32, ptr %32, align 4, !tbaa !11
  %175 = sext i32 %174 to i64
  %176 = getelementptr inbounds i8, ptr %173, i64 %175
  store i8 %172, ptr %176, align 1, !tbaa !91
  call void @llvm.lifetime.end.p0(i64 4, ptr %33) #10
  br label %177

177:                                              ; preds = %65
  %178 = load i32, ptr %32, align 4, !tbaa !11
  %179 = add nsw i32 %178, 1
  store i32 %179, ptr %32, align 4, !tbaa !11
  br label %61, !llvm.loop !100

180:                                              ; preds = %61
  call void @llvm.lifetime.end.p0(i64 4, ptr %32) #10
  call void @llvm.lifetime.end.p0(i64 8, ptr %31) #10
  call void @llvm.lifetime.end.p0(i64 8, ptr %30) #10
  call void @llvm.lifetime.end.p0(i64 8, ptr %29) #10
  call void @llvm.lifetime.end.p0(i64 8, ptr %28) #10
  call void @llvm.lifetime.end.p0(i64 8, ptr %27) #10
  call void @llvm.lifetime.end.p0(i64 8, ptr %26) #10
  call void @llvm.lifetime.end.p0(i64 8, ptr %25) #10
  call void @llvm.lifetime.end.p0(i64 8, ptr %24) #10
  call void @llvm.lifetime.end.p0(i64 8, ptr %23) #10
  ret void
}