; Function Attrs: nofree norecurse nosync nounwind memory(read, argmem: readwrite, inaccessiblemem: none) uwtable
define internal void @filter_3x3(ptr noundef writeonly captures(none) %0, i32 noundef %1, float noundef %2, float noundef %3, ptr noundef readonly captures(none) %4, ptr noundef readonly captures(none) %5, i32 %6, i32 %7, i32 %8, i32 %9, i32 %10) #6 {
  %12 = load ptr, ptr %5, align 8, !tbaa !46
  %13 = getelementptr inbounds nuw i8, ptr %5, i64 8
  %14 = load ptr, ptr %13, align 8, !tbaa !46
  %15 = getelementptr inbounds nuw i8, ptr %5, i64 16
  %16 = load ptr, ptr %15, align 8, !tbaa !46
  %17 = getelementptr inbounds nuw i8, ptr %5, i64 24
  %18 = load ptr, ptr %17, align 8, !tbaa !46
  %19 = getelementptr inbounds nuw i8, ptr %5, i64 32
  %20 = load ptr, ptr %19, align 8, !tbaa !46
  %21 = getelementptr inbounds nuw i8, ptr %5, i64 40
  %22 = load ptr, ptr %21, align 8, !tbaa !46
  %23 = getelementptr inbounds nuw i8, ptr %5, i64 48
  %24 = load ptr, ptr %23, align 8, !tbaa !46
  %25 = getelementptr inbounds nuw i8, ptr %5, i64 56
  %26 = load ptr, ptr %25, align 8, !tbaa !46
  %27 = getelementptr inbounds nuw i8, ptr %5, i64 64
  %28 = load ptr, ptr %27, align 8, !tbaa !46
  %29 = icmp sgt i32 %1, 0
  br i1 %29, label %.lr.ph, label %._crit_edge

.lr.ph:                                           ; preds = %11
  %30 = getelementptr inbounds nuw i8, ptr %4, i64 4
  %31 = getelementptr inbounds nuw i8, ptr %4, i64 8
  %32 = getelementptr inbounds nuw i8, ptr %4, i64 12
  %33 = getelementptr inbounds nuw i8, ptr %4, i64 16
  %34 = getelementptr inbounds nuw i8, ptr %4, i64 20
  %35 = getelementptr inbounds nuw i8, ptr %4, i64 24
  %36 = getelementptr inbounds nuw i8, ptr %4, i64 28
  %37 = getelementptr inbounds nuw i8, ptr %4, i64 32
  %wide.trip.count = zext nneg i32 %1 to i64
  br label %38

38:                                               ; preds = %.lr.ph, %38
  %indvars.iv = phi i64 [ 0, %.lr.ph ], [ %indvars.iv.next, %38 ]
  %39 = getelementptr inbounds nuw i8, ptr %12, i64 %indvars.iv
  %40 = load i8, ptr %39, align 1, !tbaa !82
  %41 = zext i8 %40 to i32
  %42 = load i32, ptr %4, align 4, !tbaa !39
  %43 = mul nsw i32 %42, %41
  %44 = getelementptr inbounds nuw i8, ptr %14, i64 %indvars.iv
  %45 = load i8, ptr %44, align 1, !tbaa !82
  %46 = zext i8 %45 to i32
  %47 = load i32, ptr %30, align 4, !tbaa !39
  %48 = mul nsw i32 %47, %46
  %49 = add nsw i32 %48, %43
  %50 = getelementptr inbounds nuw i8, ptr %16, i64 %indvars.iv
  %51 = load i8, ptr %50, align 1, !tbaa !82
  %52 = zext i8 %51 to i32
  %53 = load i32, ptr %31, align 4, !tbaa !39
  %54 = mul nsw i32 %53, %52
  %55 = add nsw i32 %49, %54
  %56 = getelementptr inbounds nuw i8, ptr %18, i64 %indvars.iv
  %57 = load i8, ptr %56, align 1, !tbaa !82
  %58 = zext i8 %57 to i32
  %59 = load i32, ptr %32, align 4, !tbaa !39
  %60 = mul nsw i32 %59, %58
  %61 = add nsw i32 %55, %60
  %62 = getelementptr inbounds nuw i8, ptr %20, i64 %indvars.iv
  %63 = load i8, ptr %62, align 1, !tbaa !82
  %64 = zext i8 %63 to i32
  %65 = load i32, ptr %33, align 4, !tbaa !39
  %66 = mul nsw i32 %65, %64
  %67 = add nsw i32 %61, %66
  %68 = getelementptr inbounds nuw i8, ptr %22, i64 %indvars.iv
  %69 = load i8, ptr %68, align 1, !tbaa !82
  %70 = zext i8 %69 to i32
  %71 = load i32, ptr %34, align 4, !tbaa !39
  %72 = mul nsw i32 %71, %70
  %73 = add nsw i32 %67, %72
  %74 = getelementptr inbounds nuw i8, ptr %24, i64 %indvars.iv
  %75 = load i8, ptr %74, align 1, !tbaa !82
  %76 = zext i8 %75 to i32
  %77 = load i32, ptr %35, align 4, !tbaa !39
  %78 = mul nsw i32 %77, %76
  %79 = add nsw i32 %73, %78
  %80 = getelementptr inbounds nuw i8, ptr %26, i64 %indvars.iv
  %81 = load i8, ptr %80, align 1, !tbaa !82
  %82 = zext i8 %81 to i32
  %83 = load i32, ptr %36, align 4, !tbaa !39
  %84 = mul nsw i32 %83, %82
  %85 = add nsw i32 %79, %84
  %86 = getelementptr inbounds nuw i8, ptr %28, i64 %indvars.iv
  %87 = load i8, ptr %86, align 1, !tbaa !82
  %88 = zext i8 %87 to i32
  %89 = load i32, ptr %37, align 4, !tbaa !39
  %90 = mul nsw i32 %89, %88
  %91 = add nsw i32 %85, %90
  %92 = sitofp i32 %91 to float
  %93 = tail call nsz float @llvm.fmuladd.f32(float %92, float %2, float %3)
  %94 = fadd nsz float %93, 5.000000e-01
  %95 = fptosi float %94 to i32
  %.not.i = icmp ult i32 %95, 256
  %isnotneg.i = icmp sgt i32 %95, -1
  %96 = sext i1 %isnotneg.i to i8
  %97 = trunc nuw i32 %95 to i8
  %.0.i = select i1 %.not.i, i8 %97, i8 %96
  %98 = getelementptr inbounds nuw i8, ptr %0, i64 %indvars.iv
  store i8 %.0.i, ptr %98, align 1, !tbaa !82
  %indvars.iv.next = add nuw nsw i64 %indvars.iv, 1
  %exitcond.not = icmp eq i64 %indvars.iv.next, %wide.trip.count
  br i1 %exitcond.not, label %._crit_edge, label %38, !llvm.loop !91

._crit_edge:                                      ; preds = %38, %11
  ret void
}